target datalayout = "e-m:e-p270:32:32-p271:32:32-p272:64:64-i64:64-i128:128-f80:128-n8:16:32:64-S128"
target triple = "x86_64-pc-linux-gnu"

%"class.tinyxml2::StrPair" = type { i32, ptr, ptr }
%"class.tinyxml2::XMLNode" = type { ptr, ptr, ptr, %"class.tinyxml2::StrPair", i32, ptr, ptr, ptr, ptr, ptr, ptr }
%"class.tinyxml2::XMLText" = type <{ %"class.tinyxml2::XMLNode", i8, [7 x i8] }>
%"class.tinyxml2::XMLPrinter" = type { %"class.tinyxml2::XMLVisitor", i8, %"class.tinyxml2::DynArray.7", i8, ptr, i32, i32, i8, i8, [64 x i8], [64 x i8], [6 x i8], %"class.tinyxml2::DynArray.8" }
%"class.tinyxml2::XMLVisitor" = type { ptr }
%"class.tinyxml2::DynArray.7" = type { ptr, [10 x ptr], i32, i32 }
%"class.tinyxml2::DynArray.8" = type <{ ptr, [20 x i8], i32, i32, [4 x i8] }>

@.str.19 = private unnamed_addr constant [10 x i8] c"<![CDATA[\00", align 1
@.str.24 = private unnamed_addr constant [4 x i8] c"]]>\00", align 1

; Function Attrs: inlinehint mustprogress uwtable
define linkonce_odr hidden void @_ZN8tinyxml210XMLPrinter5WriteEPKc(ptr noundef nonnull align 8 dereferenceable(312) %0, ptr noundef %1) #11 comdat align 2 {
  %3 = alloca ptr, align 8
  %4 = alloca ptr, align 8
  store ptr %0, ptr %3, align 8, !tbaa !194
  store ptr %1, ptr %4, align 8, !tbaa !14
  %5 = load ptr, ptr %3, align 8
  %6 = load ptr, ptr %4, align 8, !tbaa !14
  %7 = load ptr, ptr %4, align 8, !tbaa !14
  %8 = call i64 @strlen(ptr noundef %7) #19
  %9 = load ptr, ptr %5, align 8, !tbaa !91
  %10 = getelementptr inbounds ptr, ptr %9, i64 14
  %11 = load ptr, ptr %10, align 8
  call void %11(ptr noundef nonnull align 8 dereferenceable(312) %5, ptr noundef %6, i64 noundef %8)
  ret void
}

; Function Attrs: mustprogress uwtable
define void @_ZN8tinyxml210XMLPrinter23SealElementIfJustOpenedEv(ptr noundef nonnull align 8 dereferenceable(312) %0) #2 align 2 {
  %2 = alloca ptr, align 8
  store ptr %0, ptr %2, align 8, !tbaa !194
  %3 = load ptr, ptr %2, align 8
  %4 = getelementptr inbounds nuw %"class.tinyxml2::XMLPrinter", ptr %3, i32 0, i32 1
  %5 = load i8, ptr %4, align 8, !tbaa !206, !range !35, !noundef !36
  %6 = trunc i8 %5 to i1
  br i1 %6, label %8, label %7

7:                                                ; preds = %1
  br label %13

8:                                                ; preds = %1
  %9 = getelementptr inbounds nuw %"class.tinyxml2::XMLPrinter", ptr %3, i32 0, i32 1
  store i8 0, ptr %9, align 8, !tbaa !206
  %10 = load ptr, ptr %3, align 8, !tbaa !91
  %11 = getelementptr inbounds ptr, ptr %10, i64 15
  %12 = load ptr, ptr %11, align 8
  call void %12(ptr noundef nonnull align 8 dereferenceable(312) %3, i8 noundef signext 62)
  br label %13

13:                                               ; preds = %8, %7
  ret void
}

; Function Attrs: mustprogress uwtable
define void @_ZN8tinyxml210XMLPrinter8PushTextEPKcb(ptr noundef nonnull align 8 dereferenceable(312) %0, ptr noundef %1, i1 noundef zeroext %2) #2 align 2 {
  %4 = alloca ptr, align 8
  %5 = alloca ptr, align 8
  %6 = alloca i8, align 1
  store ptr %0, ptr %4, align 8, !tbaa !194
  store ptr %1, ptr %5, align 8, !tbaa !14
  %7 = zext i1 %2 to i8
  store i8 %7, ptr %6, align 1, !tbaa !26
  %8 = load ptr, ptr %4, align 8
  %9 = getelementptr inbounds nuw %"class.tinyxml2::XMLPrinter", ptr %8, i32 0, i32 5
  %10 = load i32, ptr %9, align 8, !tbaa !214
  %11 = sub nsw i32 %10, 1
  %12 = getelementptr inbounds nuw %"class.tinyxml2::XMLPrinter", ptr %8, i32 0, i32 6
  store i32 %11, ptr %12, align 4, !tbaa !215
  call void @_ZN8tinyxml210XMLPrinter23SealElementIfJustOpenedEv(ptr noundef nonnull align 8 dereferenceable(312) %8)
  %13 = load i8, ptr %6, align 1, !tbaa !26, !range !35, !noundef !36
  %14 = trunc i8 %13 to i1
  br i1 %14, label %15, label %17

15:                                               ; preds = %3
  call void @_ZN8tinyxml210XMLPrinter5WriteEPKc(ptr noundef nonnull align 8 dereferenceable(312) %8, ptr noundef @.str.19)
  %16 = load ptr, ptr %5, align 8, !tbaa !14
  call void @_ZN8tinyxml210XMLPrinter5WriteEPKc(ptr noundef nonnull align 8 dereferenceable(312) %8, ptr noundef %16)
  call void @_ZN8tinyxml210XMLPrinter5WriteEPKc(ptr noundef nonnull align 8 dereferenceable(312) %8, ptr noundef @.str.24)
  br label %19

17:                                               ; preds = %3
  %18 = load ptr, ptr %5, align 8, !tbaa !14
  call void @_ZN8tinyxml210XMLPrinter11PrintStringEPKcb(ptr noundef nonnull align 8 dereferenceable(312) %8, ptr noundef %18, i1 noundef zeroext true)
  br label %19

19:                                               ; preds = %17, %15
  ret void
}

; Function Attrs: mustprogress nounwind uwtable
define linkonce_odr hidden noundef zeroext i1 @_ZNK8tinyxml27XMLText5CDataEv(ptr noundef nonnull align 8 dereferenceable(105) %0) #0 comdat align 2 {
  %2 = alloca ptr, align 8
  store ptr %0, ptr %2, align 8, !tbaa !87
  %3 = load ptr, ptr %2, align 8
  %4 = getelementptr inbounds nuw %"class.tinyxml2::XMLText", ptr %3, i32 0, i32 1
  %5 = load i8, ptr %4, align 8, !tbaa !100, !range !35, !noundef !36
  %6 = trunc i8 %5 to i1
  ret i1 %6
}

; Function Attrs: mustprogress uwtable
define noundef ptr @_ZNK8tinyxml27XMLNode5ValueEv(ptr noundef nonnull align 8 dereferenceable(104) %0) #2 align 2 {
  %2 = alloca ptr, align 8
  %3 = alloca ptr, align 8
  store ptr %0, ptr %3, align 8, !tbaa !85
  %4 = load ptr, ptr %3, align 8
  %5 = load ptr, ptr %4, align 8, !tbaa !91
  %6 = getelementptr inbounds ptr, ptr %5, i64 9
  %7 = load ptr, ptr %6, align 8
  %8 = call noundef ptr %7(ptr noundef nonnull align 8 dereferenceable(104) %4)
  %9 = icmp ne ptr %8, null
  br i1 %9, label %10, label %11

10:                                               ; preds = %1
  store ptr null, ptr %2, align 8
  br label %14

11:                                               ; preds = %1
  %12 = getelementptr inbounds nuw %"class.tinyxml2::XMLNode", ptr %4, i32 0, i32 3
  %13 = call noundef ptr @_ZN8tinyxml27StrPair6GetStrEv(ptr noundef nonnull align 8 dereferenceable(24) %12)
  store ptr %13, ptr %2, align 8
  br label %14

14:                                               ; preds = %11, %10
  %15 = load ptr, ptr %2, align 8
  ret ptr %15
}

; Function Attrs: mustprogress uwtable
define noundef zeroext i1 @_ZN8tinyxml210XMLPrinter5VisitERKNS_7XMLTextE(ptr noundef nonnull align 8 dereferenceable(312) %0, ptr noundef nonnull align 8 dereferenceable(105) %1) unnamed_addr #2 align 2 {
  %3 = alloca ptr, align 8
  %4 = alloca ptr, align 8
  store ptr %0, ptr %3, align 8, !tbaa !194
  store ptr %1, ptr %4, align 8, !tbaa !87
  %5 = load ptr, ptr %3, align 8
  %6 = load ptr, ptr %4, align 8, !tbaa !87
  %7 = call noundef ptr @_ZNK8tinyxml27XMLNode5ValueEv(ptr noundef nonnull align 8 dereferenceable(104) %6)
  %8 = load ptr, ptr %4, align 8, !tbaa !87
  %9 = call noundef zeroext i1 @_ZNK8tinyxml27XMLText5CDataEv(ptr noundef nonnull align 8 dereferenceable(105) %8)
  call void @_ZN8tinyxml210XMLPrinter8PushTextEPKcb(ptr noundef nonnull align 8 dereferenceable(312) %5, ptr noundef %7, i1 noundef zeroext %9)
  ret i1 true
}