; Function Attrs: mustprogress uwtable
define noundef zeroext i1 @_ZN8tinyxml210XMLPrinter5VisitERKNS_7XMLTextE(ptr noundef nonnull align 8 dereferenceable(312) initializes((132, 136)) %0, ptr noundef nonnull align 8 dereferenceable(105) %1) unnamed_addr #4 align 2 {
  %3 = load ptr, ptr %1, align 8, !tbaa !63
  %4 = getelementptr inbounds nuw i8, ptr %3, i64 72
  %5 = load ptr, ptr %4, align 8
  %6 = tail call noundef ptr %5(ptr noundef nonnull align 8 dereferenceable(104) %1)
  %.not.i = icmp eq ptr %6, null
  br i1 %.not.i, label %7, label %_ZNK8tinyxml27XMLNode5ValueEv.exit

7:                                                ; preds = %2
  %8 = getelementptr inbounds nuw i8, ptr %1, i64 24
  %9 = tail call noundef ptr @_ZN8tinyxml27StrPair6GetStrEv(ptr noundef nonnull align 8 dereferenceable(24) %8)
  br label %_ZNK8tinyxml27XMLNode5ValueEv.exit

_ZNK8tinyxml27XMLNode5ValueEv.exit:               ; preds = %2, %7
  %.0.i = phi ptr [ %9, %7 ], [ null, %2 ]
  %10 = getelementptr inbounds nuw i8, ptr %1, i64 104
  %11 = load i8, ptr %10, align 8, !tbaa !73, !range !94, !noundef !95
  %12 = trunc nuw i8 %11 to i1
  %13 = getelementptr inbounds nuw i8, ptr %0, i64 128
  %14 = load i32, ptr %13, align 8, !tbaa !164
  %15 = add nsw i32 %14, -1
  %16 = getelementptr inbounds nuw i8, ptr %0, i64 132
  store i32 %15, ptr %16, align 4, !tbaa !165
  %17 = getelementptr inbounds nuw i8, ptr %0, i64 8
  %18 = load i8, ptr %17, align 8, !tbaa !157, !range !94, !noundef !95
  %19 = trunc nuw i8 %18 to i1
  br i1 %19, label %20, label %_ZN8tinyxml210XMLPrinter23SealElementIfJustOpenedEv.exit.i

20:                                               ; preds = %_ZNK8tinyxml27XMLNode5ValueEv.exit
  store i8 0, ptr %17, align 8, !tbaa !157
  %21 = load ptr, ptr %0, align 8, !tbaa !63
  %22 = getelementptr inbounds nuw i8, ptr %21, i64 120
  %23 = load ptr, ptr %22, align 8
  tail call void %23(ptr noundef nonnull align 8 dereferenceable(312) %0, i8 noundef signext 62)
  br label %_ZN8tinyxml210XMLPrinter23SealElementIfJustOpenedEv.exit.i

_ZN8tinyxml210XMLPrinter23SealElementIfJustOpenedEv.exit.i: ; preds = %20, %_ZNK8tinyxml27XMLNode5ValueEv.exit
  br i1 %12, label %24, label %35

24:                                               ; preds = %_ZN8tinyxml210XMLPrinter23SealElementIfJustOpenedEv.exit.i
  %25 = load ptr, ptr %0, align 8, !tbaa !63
  %26 = getelementptr inbounds nuw i8, ptr %25, i64 112
  %27 = load ptr, ptr %26, align 8
  tail call void %27(ptr noundef nonnull align 8 dereferenceable(312) %0, ptr noundef nonnull @.str.19, i64 noundef 9)
  %28 = tail call i64 @strlen(ptr noundef nonnull dereferenceable(1) %.0.i) #33
  %29 = load ptr, ptr %0, align 8, !tbaa !63
  %30 = getelementptr inbounds nuw i8, ptr %29, i64 112
  %31 = load ptr, ptr %30, align 8
  tail call void %31(ptr noundef nonnull align 8 dereferenceable(312) %0, ptr noundef nonnull %.0.i, i64 noundef %28)
  %32 = load ptr, ptr %0, align 8, !tbaa !63
  %33 = getelementptr inbounds nuw i8, ptr %32, i64 112
  %34 = load ptr, ptr %33, align 8
  tail call void %34(ptr noundef nonnull align 8 dereferenceable(312) %0, ptr noundef nonnull @.str.24, i64 noundef 3)
  br label %_ZN8tinyxml210XMLPrinter8PushTextEPKcb.exit

35:                                               ; preds = %_ZN8tinyxml210XMLPrinter23SealElementIfJustOpenedEv.exit.i
  tail call void @_ZN8tinyxml210XMLPrinter11PrintStringEPKcb(ptr noundef nonnull align 8 dereferenceable(312) %0, ptr noundef %.0.i, i1 noundef zeroext true)
  br label %_ZN8tinyxml210XMLPrinter8PushTextEPKcb.exit

_ZN8tinyxml210XMLPrinter8PushTextEPKcb.exit:      ; preds = %24, %35
  ret i1 true
}